
_main:

;LEDs.c,1 :: 		void main()
;LEDs.c,4 :: 		TRISB = 0b00000000; //Todos los bits b0, b1,b2 ... van a ser salidas.
	CLRF        TRISB+0 
;LEDs.c,5 :: 		PORTB = 0b00000000; //0 = todos los bits del puerto estarán apagados inicialmente
	CLRF        PORTB+0 
;LEDs.c,8 :: 		while(1)
L_main0:
;LEDs.c,10 :: 		PORTB = 0b00000000;
	CLRF        PORTB+0 
;LEDs.c,11 :: 		Delay_ms(100);
	MOVLW       3
	MOVWF       R11, 0
	MOVLW       138
	MOVWF       R12, 0
	MOVLW       85
	MOVWF       R13, 0
L_main2:
	DECFSZ      R13, 1, 1
	BRA         L_main2
	DECFSZ      R12, 1, 1
	BRA         L_main2
	DECFSZ      R11, 1, 1
	BRA         L_main2
	NOP
	NOP
;LEDs.c,12 :: 		PORTB = 0b00000001; //El bit que esta a 1 es el RB0 -> encender led
	MOVLW       1
	MOVWF       PORTB+0 
;LEDs.c,13 :: 		Delay_ms(100); //Delay al final porque luego salta de nuevo al comienzo del bucle
	MOVLW       3
	MOVWF       R11, 0
	MOVLW       138
	MOVWF       R12, 0
	MOVLW       85
	MOVWF       R13, 0
L_main3:
	DECFSZ      R13, 1, 1
	BRA         L_main3
	DECFSZ      R12, 1, 1
	BRA         L_main3
	DECFSZ      R11, 1, 1
	BRA         L_main3
	NOP
	NOP
;LEDs.c,15 :: 		Delay_ms(100);
	MOVLW       3
	MOVWF       R11, 0
	MOVLW       138
	MOVWF       R12, 0
	MOVLW       85
	MOVWF       R13, 0
L_main4:
	DECFSZ      R13, 1, 1
	BRA         L_main4
	DECFSZ      R12, 1, 1
	BRA         L_main4
	DECFSZ      R11, 1, 1
	BRA         L_main4
	NOP
	NOP
;LEDs.c,16 :: 		PORTB = 0b00000010;
	MOVLW       2
	MOVWF       PORTB+0 
;LEDs.c,17 :: 		Delay_ms(100);
	MOVLW       3
	MOVWF       R11, 0
	MOVLW       138
	MOVWF       R12, 0
	MOVLW       85
	MOVWF       R13, 0
L_main5:
	DECFSZ      R13, 1, 1
	BRA         L_main5
	DECFSZ      R12, 1, 1
	BRA         L_main5
	DECFSZ      R11, 1, 1
	BRA         L_main5
	NOP
	NOP
;LEDs.c,19 :: 		Delay_ms(100);
	MOVLW       3
	MOVWF       R11, 0
	MOVLW       138
	MOVWF       R12, 0
	MOVLW       85
	MOVWF       R13, 0
L_main6:
	DECFSZ      R13, 1, 1
	BRA         L_main6
	DECFSZ      R12, 1, 1
	BRA         L_main6
	DECFSZ      R11, 1, 1
	BRA         L_main6
	NOP
	NOP
;LEDs.c,20 :: 		PORTB = 0b00000100;
	MOVLW       4
	MOVWF       PORTB+0 
;LEDs.c,21 :: 		Delay_ms(100);
	MOVLW       3
	MOVWF       R11, 0
	MOVLW       138
	MOVWF       R12, 0
	MOVLW       85
	MOVWF       R13, 0
L_main7:
	DECFSZ      R13, 1, 1
	BRA         L_main7
	DECFSZ      R12, 1, 1
	BRA         L_main7
	DECFSZ      R11, 1, 1
	BRA         L_main7
	NOP
	NOP
;LEDs.c,23 :: 		Delay_ms(100);
	MOVLW       3
	MOVWF       R11, 0
	MOVLW       138
	MOVWF       R12, 0
	MOVLW       85
	MOVWF       R13, 0
L_main8:
	DECFSZ      R13, 1, 1
	BRA         L_main8
	DECFSZ      R12, 1, 1
	BRA         L_main8
	DECFSZ      R11, 1, 1
	BRA         L_main8
	NOP
	NOP
;LEDs.c,24 :: 		PORTB = 0b00001000;
	MOVLW       8
	MOVWF       PORTB+0 
;LEDs.c,25 :: 		Delay_ms(100);
	MOVLW       3
	MOVWF       R11, 0
	MOVLW       138
	MOVWF       R12, 0
	MOVLW       85
	MOVWF       R13, 0
L_main9:
	DECFSZ      R13, 1, 1
	BRA         L_main9
	DECFSZ      R12, 1, 1
	BRA         L_main9
	DECFSZ      R11, 1, 1
	BRA         L_main9
	NOP
	NOP
;LEDs.c,27 :: 		Delay_ms(100);
	MOVLW       3
	MOVWF       R11, 0
	MOVLW       138
	MOVWF       R12, 0
	MOVLW       85
	MOVWF       R13, 0
L_main10:
	DECFSZ      R13, 1, 1
	BRA         L_main10
	DECFSZ      R12, 1, 1
	BRA         L_main10
	DECFSZ      R11, 1, 1
	BRA         L_main10
	NOP
	NOP
;LEDs.c,28 :: 		PORTB = 0b00010000;
	MOVLW       16
	MOVWF       PORTB+0 
;LEDs.c,29 :: 		Delay_ms(100);
	MOVLW       3
	MOVWF       R11, 0
	MOVLW       138
	MOVWF       R12, 0
	MOVLW       85
	MOVWF       R13, 0
L_main11:
	DECFSZ      R13, 1, 1
	BRA         L_main11
	DECFSZ      R12, 1, 1
	BRA         L_main11
	DECFSZ      R11, 1, 1
	BRA         L_main11
	NOP
	NOP
;LEDs.c,31 :: 		Delay_ms(100);
	MOVLW       3
	MOVWF       R11, 0
	MOVLW       138
	MOVWF       R12, 0
	MOVLW       85
	MOVWF       R13, 0
L_main12:
	DECFSZ      R13, 1, 1
	BRA         L_main12
	DECFSZ      R12, 1, 1
	BRA         L_main12
	DECFSZ      R11, 1, 1
	BRA         L_main12
	NOP
	NOP
;LEDs.c,32 :: 		PORTB = 0b00100000;
	MOVLW       32
	MOVWF       PORTB+0 
;LEDs.c,33 :: 		Delay_ms(100);
	MOVLW       3
	MOVWF       R11, 0
	MOVLW       138
	MOVWF       R12, 0
	MOVLW       85
	MOVWF       R13, 0
L_main13:
	DECFSZ      R13, 1, 1
	BRA         L_main13
	DECFSZ      R12, 1, 1
	BRA         L_main13
	DECFSZ      R11, 1, 1
	BRA         L_main13
	NOP
	NOP
;LEDs.c,35 :: 		Delay_ms(100);
	MOVLW       3
	MOVWF       R11, 0
	MOVLW       138
	MOVWF       R12, 0
	MOVLW       85
	MOVWF       R13, 0
L_main14:
	DECFSZ      R13, 1, 1
	BRA         L_main14
	DECFSZ      R12, 1, 1
	BRA         L_main14
	DECFSZ      R11, 1, 1
	BRA         L_main14
	NOP
	NOP
;LEDs.c,36 :: 		PORTB = 0b01000000;
	MOVLW       64
	MOVWF       PORTB+0 
;LEDs.c,37 :: 		Delay_ms(100);
	MOVLW       3
	MOVWF       R11, 0
	MOVLW       138
	MOVWF       R12, 0
	MOVLW       85
	MOVWF       R13, 0
L_main15:
	DECFSZ      R13, 1, 1
	BRA         L_main15
	DECFSZ      R12, 1, 1
	BRA         L_main15
	DECFSZ      R11, 1, 1
	BRA         L_main15
	NOP
	NOP
;LEDs.c,39 :: 		Delay_ms(100);
	MOVLW       3
	MOVWF       R11, 0
	MOVLW       138
	MOVWF       R12, 0
	MOVLW       85
	MOVWF       R13, 0
L_main16:
	DECFSZ      R13, 1, 1
	BRA         L_main16
	DECFSZ      R12, 1, 1
	BRA         L_main16
	DECFSZ      R11, 1, 1
	BRA         L_main16
	NOP
	NOP
;LEDs.c,40 :: 		PORTB = 0b10000000;
	MOVLW       128
	MOVWF       PORTB+0 
;LEDs.c,41 :: 		Delay_ms(100);
	MOVLW       3
	MOVWF       R11, 0
	MOVLW       138
	MOVWF       R12, 0
	MOVLW       85
	MOVWF       R13, 0
L_main17:
	DECFSZ      R13, 1, 1
	BRA         L_main17
	DECFSZ      R12, 1, 1
	BRA         L_main17
	DECFSZ      R11, 1, 1
	BRA         L_main17
	NOP
	NOP
;LEDs.c,44 :: 		}
	GOTO        L_main0
;LEDs.c,47 :: 		}
L_end_main:
	GOTO        $+0
; end of _main
